target datalayout = "e-m:e-p270:32:32-p271:32:32-p272:64:64-i64:64-i128:128-f80:128-n8:16:32:64-S128"
target triple = "x86_64-pc-linux-gnu"

%"class.icu_77::MaybeStackArray" = type <{ ptr, i32, i8, [40 x i8], [3 x i8] }>
%"class.icu_77::CharString" = type { %"class.icu_77::MaybeStackArray", i32, [4 x i8] }
%"class.icu_77::StringPiece" = type <{ ptr, i32, [4 x i8] }>
%"class.icu_77::number::impl::DecNum" = type { %"class.icu_77::MaybeStackHeaderAndArray", %struct.decContext, [4 x i8] }
%"class.icu_77::MaybeStackHeaderAndArray" = type <{ ptr, i32, i8, [3 x i8], %struct.decNumber, [34 x i8], [2 x i8] }>
%struct.decNumber = type { i32, i32, i8, [1 x i8] }
%struct.decContext = type { i32, i32, i32, i32, i32, i32, i8 }

@_ZN6icu_7715MaybeStackArrayIcLi40EEC1Ev = weak_odr unnamed_addr alias void (ptr), ptr @_ZN6icu_7715MaybeStackArrayIcLi40EEC2Ev
@_ZN6icu_7715MaybeStackArrayIcLi40EED1Ev = weak_odr unnamed_addr alias void (ptr), ptr @_ZN6icu_7715MaybeStackArrayIcLi40EED2Ev

; Function Attrs: mustprogress uwtable
define linkonce_odr void @_ZN6icu_7724MaybeStackHeaderAndArrayI9decNumbercLi34EE13releaseMemoryEv(ptr noundef nonnull align 8 dereferenceable(62) %0) #1 comdat align 2 {
  %2 = alloca ptr, align 8
  store ptr %0, ptr %2, align 8, !tbaa !48
  %3 = load ptr, ptr %2, align 8
  %4 = getelementptr inbounds nuw %"class.icu_77::MaybeStackHeaderAndArray", ptr %3, i32 0, i32 2
  %5 = load i8, ptr %4, align 4, !tbaa !52
  %6 = icmp ne i8 %5, 0
  br i1 %6, label %7, label %10

7:                                                ; preds = %1
  %8 = getelementptr inbounds nuw %"class.icu_77::MaybeStackHeaderAndArray", ptr %3, i32 0, i32 0
  %9 = load ptr, ptr %8, align 8, !tbaa !50
  call void @uprv_free_77(ptr noundef %9)
  br label %10

10:                                               ; preds = %7, %1
  ret void
}

; Function Attrs: mustprogress nounwind uwtable
define linkonce_odr noundef ptr @_ZNK6icu_7711StringPiece4dataEv(ptr noundef nonnull align 8 dereferenceable(12) %0) #0 comdat align 2 {
  %2 = alloca ptr, align 8
  store ptr %0, ptr %2, align 8, !tbaa !62
  %3 = load ptr, ptr %2, align 8
  %4 = getelementptr inbounds nuw %"class.icu_77::StringPiece", ptr %3, i32 0, i32 0
  %5 = load ptr, ptr %4, align 8, !tbaa !84
  ret ptr %5
}

; Function Attrs: mustprogress nounwind uwtable
define linkonce_odr noundef ptr @_ZNK6icu_7724MaybeStackHeaderAndArrayI9decNumbercLi34EE8getAliasEv(ptr noundef nonnull align 8 dereferenceable(62) %0) #0 comdat align 2 {
  %2 = alloca ptr, align 8
  store ptr %0, ptr %2, align 8, !tbaa !48
  %3 = load ptr, ptr %2, align 8
  %4 = getelementptr inbounds nuw %"class.icu_77::MaybeStackHeaderAndArray", ptr %3, i32 0, i32 0
  %5 = load ptr, ptr %4, align 8, !tbaa !50
  ret ptr %5
}

; Function Attrs: inlinehint mustprogress uwtable
define linkonce_odr noundef ptr @_ZN6icu_7724MaybeStackHeaderAndArrayI9decNumbercLi34EE6resizeEii(ptr noundef nonnull align 8 dereferenceable(62) %0, i32 noundef %1, i32 noundef %2) #3 comdat align 2 {
  %4 = alloca ptr, align 8
  %5 = alloca ptr, align 8
  %6 = alloca i32, align 4
  %7 = alloca i32, align 4
  %8 = alloca ptr, align 8
  store ptr %0, ptr %5, align 8, !tbaa !48
  store i32 %1, ptr %6, align 4, !tbaa !14
  store i32 %2, ptr %7, align 4, !tbaa !14
  %9 = load ptr, ptr %5, align 8
  %10 = load i32, ptr %6, align 4, !tbaa !14
  %11 = icmp sge i32 %10, 0
  br i1 %11, label %12, label %61

12:                                               ; preds = %3
  call void @llvm.lifetime.start.p0(i64 8, ptr %8) #12
  %13 = load i32, ptr %6, align 4, !tbaa !14
  %14 = sext i32 %13 to i64
  %15 = mul i64 %14, 1
  %16 = add i64 12, %15
  %17 = call noalias ptr @uprv_malloc_77(i64 noundef %16) #13
  store ptr %17, ptr %8, align 8, !tbaa !22
  %18 = load ptr, ptr %8, align 8, !tbaa !22
  %19 = icmp ne ptr %18, null
  br i1 %19, label %20, label %59

20:                                               ; preds = %12
  %21 = load i32, ptr %7, align 4, !tbaa !14
  %22 = icmp slt i32 %21, 0
  br i1 %22, label %23, label %24

23:                                               ; preds = %20
  store i32 0, ptr %7, align 4, !tbaa !14
  br label %43

24:                                               ; preds = %20
  %25 = load i32, ptr %7, align 4, !tbaa !14
  %26 = icmp sgt i32 %25, 0
  br i1 %26, label %27, label %42

27:                                               ; preds = %24
  %28 = load i32, ptr %7, align 4, !tbaa !14
  %29 = getelementptr inbounds nuw %"class.icu_77::MaybeStackHeaderAndArray", ptr %9, i32 0, i32 1
  %30 = load i32, ptr %29, align 8, !tbaa !51
  %31 = icmp sgt i32 %28, %30
  br i1 %31, label %32, label %35

32:                                               ; preds = %27
  %33 = getelementptr inbounds nuw %"class.icu_77::MaybeStackHeaderAndArray", ptr %9, i32 0, i32 1
  %34 = load i32, ptr %33, align 8, !tbaa !51
  store i32 %34, ptr %7, align 4, !tbaa !14
  br label %35

35:                                               ; preds = %32, %27
  %36 = load i32, ptr %7, align 4, !tbaa !14
  %37 = load i32, ptr %6, align 4, !tbaa !14
  %38 = icmp sgt i32 %36, %37
  br i1 %38, label %39, label %41

39:                                               ; preds = %35
  %40 = load i32, ptr %6, align 4, !tbaa !14
  store i32 %40, ptr %7, align 4, !tbaa !14
  br label %41

41:                                               ; preds = %39, %35
  br label %42

42:                                               ; preds = %41, %24
  br label %43

43:                                               ; preds = %42, %23
  br label %44

44:                                               ; preds = %43
  %45 = load ptr, ptr %8, align 8, !tbaa !22
  %46 = getelementptr inbounds nuw %"class.icu_77::MaybeStackHeaderAndArray", ptr %9, i32 0, i32 0
  %47 = load ptr, ptr %46, align 8, !tbaa !50
  %48 = load i32, ptr %7, align 4, !tbaa !14
  %49 = sext i32 %48 to i64
  %50 = mul i64 %49, 1
  %51 = add i64 12, %50
  call void @llvm.memcpy.p0.p0.i64(ptr align 4 %45, ptr align 4 %47, i64 %51, i1 false)
  br label %52

52:                                               ; preds = %44
  br label %53

53:                                               ; preds = %52
  call void @_ZN6icu_7724MaybeStackHeaderAndArrayI9decNumbercLi34EE13releaseMemoryEv(ptr noundef nonnull align 8 dereferenceable(62) %9)
  %54 = load ptr, ptr %8, align 8, !tbaa !22
  %55 = getelementptr inbounds nuw %"class.icu_77::MaybeStackHeaderAndArray", ptr %9, i32 0, i32 0
  store ptr %54, ptr %55, align 8, !tbaa !50
  %56 = load i32, ptr %6, align 4, !tbaa !14
  %57 = getelementptr inbounds nuw %"class.icu_77::MaybeStackHeaderAndArray", ptr %9, i32 0, i32 1
  store i32 %56, ptr %57, align 8, !tbaa !51
  %58 = getelementptr inbounds nuw %"class.icu_77::MaybeStackHeaderAndArray", ptr %9, i32 0, i32 2
  store i8 1, ptr %58, align 4, !tbaa !52
  br label %59

59:                                               ; preds = %53, %12
  %60 = load ptr, ptr %8, align 8, !tbaa !22
  store ptr %60, ptr %4, align 8
  call void @llvm.lifetime.end.p0(i64 8, ptr %8) #12
  br label %62

61:                                               ; preds = %3
  store ptr null, ptr %4, align 8
  br label %62

62:                                               ; preds = %61, %59
  %63 = load ptr, ptr %4, align 8
  ret ptr %63
}

; Function Attrs: mustprogress nounwind uwtable
define weak_odr noundef ptr @_ZNK6icu_7715MaybeStackArrayIcLi40EE8getAliasEv(ptr noundef nonnull align 8 dereferenceable(53) %0) #0 comdat align 2 {
  %2 = alloca ptr, align 8
  store ptr %0, ptr %2, align 8, !tbaa !3
  %3 = load ptr, ptr %2, align 8
  %4 = getelementptr inbounds nuw %"class.icu_77::MaybeStackArray", ptr %3, i32 0, i32 0
  %5 = load ptr, ptr %4, align 8, !tbaa !8
  ret ptr %5
}

; Function Attrs: mustprogress uwtable
define linkonce_odr noundef nonnull align 8 dereferenceable(60) ptr @_ZN6icu_7710CharString6appendENS_11StringPieceER10UErrorCode(ptr noundef nonnull align 8 dereferenceable(60) %0, ptr %1, i32 %2, ptr noundef nonnull align 4 dereferenceable(4) %3) #1 comdat align 2 {
  %5 = alloca %"class.icu_77::StringPiece", align 8
  %6 = alloca ptr, align 8
  %7 = alloca ptr, align 8
  %8 = getelementptr inbounds nuw { ptr, i32 }, ptr %5, i32 0, i32 0
  store ptr %1, ptr %8, align 8
  %9 = getelementptr inbounds nuw { ptr, i32 }, ptr %5, i32 0, i32 1
  store i32 %2, ptr %9, align 8
  store ptr %0, ptr %6, align 8, !tbaa !57
  store ptr %3, ptr %7, align 8, !tbaa !22
  %10 = load ptr, ptr %6, align 8
  %11 = call noundef ptr @_ZNK6icu_7711StringPiece4dataEv(ptr noundef nonnull align 8 dereferenceable(12) %5)
  %12 = call noundef i32 @_ZNK6icu_7711StringPiece6lengthEv(ptr noundef nonnull align 8 dereferenceable(12) %5)
  %13 = load ptr, ptr %7, align 8, !tbaa !22
  %14 = call noundef nonnull align 8 dereferenceable(60) ptr @_ZN6icu_7710CharString6appendEPKciR10UErrorCode(ptr noundef nonnull align 8 dereferenceable(60) %10, ptr noundef %11, i32 noundef %12, ptr noundef nonnull align 4 dereferenceable(4) %13)
  ret ptr %14
}

; Function Attrs: mustprogress nounwind uwtable
define weak_odr noundef nonnull align 1 dereferenceable(1) ptr @_ZN6icu_7715MaybeStackArrayIcLi40EEixEl(ptr noundef nonnull align 8 dereferenceable(53) %0, i64 noundef %1) #0 comdat align 2 {
  %3 = alloca ptr, align 8
  %4 = alloca i64, align 8
  store ptr %0, ptr %3, align 8, !tbaa !3
  store i64 %1, ptr %4, align 8, !tbaa !18
  %5 = load ptr, ptr %3, align 8
  %6 = getelementptr inbounds nuw %"class.icu_77::MaybeStackArray", ptr %5, i32 0, i32 0
  %7 = load ptr, ptr %6, align 8, !tbaa !8
  %8 = load i64, ptr %4, align 8, !tbaa !18
  %9 = getelementptr inbounds i8, ptr %7, i64 %8
  ret ptr %9
}

; Function Attrs: mustprogress uwtable
define void @_ZN6icu_776number4impl6DecNum6_setToEPKciR10UErrorCode(ptr noundef nonnull align 8 dereferenceable(92) %0, ptr noundef %1, i32 noundef %2, ptr noundef nonnull align 4 dereferenceable(4) %3) #1 align 2 {
  %5 = alloca ptr, align 8
  %6 = alloca ptr, align 8
  %7 = alloca i32, align 4
  %8 = alloca ptr, align 8
  store ptr %0, ptr %5, align 8, !tbaa !40
  store ptr %1, ptr %6, align 8, !tbaa !17
  store i32 %2, ptr %7, align 4, !tbaa !14
  store ptr %3, ptr %8, align 8, !tbaa !22
  %9 = load ptr, ptr %5, align 8
  %10 = load i32, ptr %7, align 4, !tbaa !14
  %11 = icmp sgt i32 %10, 34
  br i1 %11, label %12, label %19

12:                                               ; preds = %4
  %13 = getelementptr inbounds nuw %"class.icu_77::number::impl::DecNum", ptr %9, i32 0, i32 0
  %14 = load i32, ptr %7, align 4, !tbaa !14
  %15 = call noundef ptr @_ZN6icu_7724MaybeStackHeaderAndArrayI9decNumbercLi34EE6resizeEii(ptr noundef nonnull align 8 dereferenceable(62) %13, i32 noundef %14, i32 noundef 0)
  %16 = load i32, ptr %7, align 4, !tbaa !14
  %17 = getelementptr inbounds nuw %"class.icu_77::number::impl::DecNum", ptr %9, i32 0, i32 1
  %18 = getelementptr inbounds nuw %struct.decContext, ptr %17, i32 0, i32 0
  store i32 %16, ptr %18, align 8, !tbaa !56
  br label %22

19:                                               ; preds = %4
  %20 = getelementptr inbounds nuw %"class.icu_77::number::impl::DecNum", ptr %9, i32 0, i32 1
  %21 = getelementptr inbounds nuw %struct.decContext, ptr %20, i32 0, i32 0
  store i32 34, ptr %21, align 8, !tbaa !56
  br label %22

22:                                               ; preds = %19, %12
  %23 = getelementptr inbounds nuw %"class.icu_77::number::impl::DecNum", ptr %9, i32 0, i32 0
  %24 = call noundef ptr @_ZNK6icu_7724MaybeStackHeaderAndArrayI9decNumbercLi34EE8getAliasEv(ptr noundef nonnull align 8 dereferenceable(62) %23)
  %25 = load ptr, ptr %6, align 8, !tbaa !17
  %26 = getelementptr inbounds nuw %"class.icu_77::number::impl::DecNum", ptr %9, i32 0, i32 1
  %27 = call ptr @uprv_decNumberFromString_77(ptr noundef %24, ptr noundef %25, ptr noundef %26)
  %28 = getelementptr inbounds nuw %"class.icu_77::number::impl::DecNum", ptr %9, i32 0, i32 1
  %29 = getelementptr inbounds nuw %struct.decContext, ptr %28, i32 0, i32 5
  %30 = load i32, ptr %29, align 4, !tbaa !61
  %31 = and i32 %30, 1
  %32 = icmp ne i32 %31, 0
  br i1 %32, label %33, label %35

33:                                               ; preds = %22
  %34 = load ptr, ptr %8, align 8, !tbaa !22
  store i32 65808, ptr %34, align 4, !tbaa !15
  br label %43

35:                                               ; preds = %22
  %36 = getelementptr inbounds nuw %"class.icu_77::number::impl::DecNum", ptr %9, i32 0, i32 1
  %37 = getelementptr inbounds nuw %struct.decContext, ptr %36, i32 0, i32 5
  %38 = load i32, ptr %37, align 4, !tbaa !61
  %39 = icmp ne i32 %38, 0
  br i1 %39, label %40, label %42

40:                                               ; preds = %35
  %41 = load ptr, ptr %8, align 8, !tbaa !22
  store i32 16, ptr %41, align 4, !tbaa !15
  br label %43

42:                                               ; preds = %35
  br label %43

43:                                               ; preds = %33, %40, %42
  ret void
}

; Function Attrs: mustprogress nounwind uwtable
define linkonce_odr noundef i32 @_ZNK6icu_7711StringPiece6lengthEv(ptr noundef nonnull align 8 dereferenceable(12) %0) #0 comdat align 2 {
  %2 = alloca ptr, align 8
  store ptr %0, ptr %2, align 8, !tbaa !62
  %3 = load ptr, ptr %2, align 8
  %4 = getelementptr inbounds nuw %"class.icu_77::StringPiece", ptr %3, i32 0, i32 1
  %5 = load i32, ptr %4, align 8, !tbaa !64
  ret i32 %5
}

; Function Attrs: mustprogress nounwind uwtable
define linkonce_odr noundef ptr @_ZN6icu_7710CharString4dataEv(ptr noundef nonnull align 8 dereferenceable(60) %0) #0 comdat align 2 {
  %2 = alloca ptr, align 8
  store ptr %0, ptr %2, align 8, !tbaa !57
  %3 = load ptr, ptr %2, align 8
  %4 = getelementptr inbounds nuw %"class.icu_77::CharString", ptr %3, i32 0, i32 0
  %5 = call noundef ptr @_ZNK6icu_7715MaybeStackArrayIcLi40EE8getAliasEv(ptr noundef nonnull align 8 dereferenceable(53) %4)
  ret ptr %5
}

; Function Attrs: mustprogress nounwind uwtable
define linkonce_odr void @_ZN6icu_7710CharStringD2Ev(ptr noundef nonnull align 8 dereferenceable(60) %0) unnamed_addr #0 comdat align 2 {
  %2 = alloca ptr, align 8
  store ptr %0, ptr %2, align 8, !tbaa !57
  %3 = load ptr, ptr %2, align 8
  %4 = getelementptr inbounds nuw %"class.icu_77::CharString", ptr %3, i32 0, i32 0
  call void @_ZN6icu_7715MaybeStackArrayIcLi40EED1Ev(ptr noundef nonnull align 8 dereferenceable(53) %4) #12
  ret void
}

; Function Attrs: inlinehint mustprogress nounwind uwtable
define internal noundef signext i8 @_ZL9U_FAILURE10UErrorCode(i32 noundef %0) #2 {
  %2 = alloca i32, align 4
  store i32 %0, ptr %2, align 4, !tbaa !15
  %3 = load i32, ptr %2, align 4, !tbaa !15
  %4 = icmp sgt i32 %3, 0
  %5 = zext i1 %4 to i8
  ret i8 %5
}

; Function Attrs: mustprogress uwtable
define linkonce_odr void @_ZN6icu_7710CharStringC2ENS_11StringPieceER10UErrorCode(ptr noundef nonnull align 8 dereferenceable(60) %0, ptr %1, i32 %2, ptr noundef nonnull align 4 dereferenceable(4) %3) unnamed_addr #1 comdat align 2 personality ptr @__gxx_personality_v0 {
  %5 = alloca %"class.icu_77::StringPiece", align 8
  %6 = alloca ptr, align 8
  %7 = alloca ptr, align 8
  %8 = alloca %"class.icu_77::StringPiece", align 8
  %9 = alloca ptr, align 8
  %10 = alloca i32, align 4
  %11 = getelementptr inbounds nuw { ptr, i32 }, ptr %5, i32 0, i32 0
  store ptr %1, ptr %11, align 8
  %12 = getelementptr inbounds nuw { ptr, i32 }, ptr %5, i32 0, i32 1
  store i32 %2, ptr %12, align 8
  store ptr %0, ptr %6, align 8, !tbaa !57
  store ptr %3, ptr %7, align 8, !tbaa !22
  %13 = load ptr, ptr %6, align 8
  %14 = getelementptr inbounds nuw %"class.icu_77::CharString", ptr %13, i32 0, i32 0
  call void @_ZN6icu_7715MaybeStackArrayIcLi40EEC1Ev(ptr noundef nonnull align 8 dereferenceable(53) %14)
  %15 = getelementptr inbounds nuw %"class.icu_77::CharString", ptr %13, i32 0, i32 1
  store i32 0, ptr %15, align 8, !tbaa !59
  %16 = getelementptr inbounds nuw %"class.icu_77::CharString", ptr %13, i32 0, i32 0
  %17 = call noundef nonnull align 1 dereferenceable(1) ptr @_ZN6icu_7715MaybeStackArrayIcLi40EEixEl(ptr noundef nonnull align 8 dereferenceable(53) %16, i64 noundef 0)
  store i8 0, ptr %17, align 1, !tbaa !55
  call void @llvm.memcpy.p0.p0.i64(ptr align 8 %8, ptr align 8 %5, i64 16, i1 false)
  %18 = load ptr, ptr %7, align 8, !tbaa !22
  %19 = getelementptr inbounds nuw { ptr, i32 }, ptr %8, i32 0, i32 0
  %20 = load ptr, ptr %19, align 8
  %21 = getelementptr inbounds nuw { ptr, i32 }, ptr %8, i32 0, i32 1
  %22 = load i32, ptr %21, align 8
  %23 = invoke noundef nonnull align 8 dereferenceable(60) ptr @_ZN6icu_7710CharString6appendENS_11StringPieceER10UErrorCode(ptr noundef nonnull align 8 dereferenceable(60) %13, ptr %20, i32 %22, ptr noundef nonnull align 4 dereferenceable(4) %18)
          to label %24 unwind label %25

24:                                               ; preds = %4
  ret void

25:                                               ; preds = %4
  %26 = landingpad { ptr, i32 }
          cleanup
  %27 = extractvalue { ptr, i32 } %26, 0
  store ptr %27, ptr %9, align 8
  %28 = extractvalue { ptr, i32 } %26, 1
  store i32 %28, ptr %10, align 4
  call void @_ZN6icu_7715MaybeStackArrayIcLi40EED1Ev(ptr noundef nonnull align 8 dereferenceable(53) %14) #12
  br label %29

29:                                               ; preds = %25
  %30 = load ptr, ptr %9, align 8
  %31 = load i32, ptr %10, align 4
  %32 = insertvalue { ptr, i32 } poison, ptr %30, 0
  %33 = insertvalue { ptr, i32 } %32, i32 %31, 1
  resume { ptr, i32 } %33
}

; Function Attrs: mustprogress uwtable
define void @_ZN6icu_776number4impl6DecNum5setToENS_11StringPieceER10UErrorCode(ptr noundef nonnull align 8 dereferenceable(92) %0, ptr %1, i32 %2, ptr noundef nonnull align 4 dereferenceable(4) %3) #1 align 2 personality ptr @__gxx_personality_v0 {
  %5 = alloca %"class.icu_77::StringPiece", align 8
  %6 = alloca ptr, align 8
  %7 = alloca ptr, align 8
  %8 = alloca %"class.icu_77::CharString", align 8
  %9 = alloca %"class.icu_77::StringPiece", align 8
  %10 = alloca ptr, align 8
  %11 = alloca i32, align 4
  %12 = alloca i32, align 4
  %13 = getelementptr inbounds nuw { ptr, i32 }, ptr %5, i32 0, i32 0
  store ptr %1, ptr %13, align 8
  %14 = getelementptr inbounds nuw { ptr, i32 }, ptr %5, i32 0, i32 1
  store i32 %2, ptr %14, align 8
  store ptr %0, ptr %6, align 8, !tbaa !40
  store ptr %3, ptr %7, align 8, !tbaa !22
  %15 = load ptr, ptr %6, align 8
  call void @llvm.lifetime.start.p0(i64 64, ptr %8) #12
  call void @llvm.memcpy.p0.p0.i64(ptr align 8 %9, ptr align 8 %5, i64 16, i1 false)
  %16 = load ptr, ptr %7, align 8, !tbaa !22
  %17 = getelementptr inbounds nuw { ptr, i32 }, ptr %9, i32 0, i32 0
  %18 = load ptr, ptr %17, align 8
  %19 = getelementptr inbounds nuw { ptr, i32 }, ptr %9, i32 0, i32 1
  %20 = load i32, ptr %19, align 8
  call void @_ZN6icu_7710CharStringC2ENS_11StringPieceER10UErrorCode(ptr noundef nonnull align 8 dereferenceable(60) %8, ptr %18, i32 %20, ptr noundef nonnull align 4 dereferenceable(4) %16)
  %21 = load ptr, ptr %7, align 8, !tbaa !22
  %22 = load i32, ptr %21, align 4, !tbaa !15
  %23 = invoke noundef signext i8 @_ZL9U_FAILURE10UErrorCode(i32 noundef %22)
          to label %24 unwind label %27

24:                                               ; preds = %4
  %25 = icmp ne i8 %23, 0
  br i1 %25, label %26, label %31

26:                                               ; preds = %24
  store i32 1, ptr %12, align 4
  br label %38

27:                                               ; preds = %35, %33, %31, %4
  %28 = landingpad { ptr, i32 }
          cleanup
  %29 = extractvalue { ptr, i32 } %28, 0
  store ptr %29, ptr %10, align 8
  %30 = extractvalue { ptr, i32 } %28, 1
  store i32 %30, ptr %11, align 4
  call void @_ZN6icu_7710CharStringD2Ev(ptr noundef nonnull align 8 dereferenceable(60) %8) #12
  call void @llvm.lifetime.end.p0(i64 64, ptr %8) #12
  br label %41

31:                                               ; preds = %24
  %32 = invoke noundef ptr @_ZN6icu_7710CharString4dataEv(ptr noundef nonnull align 8 dereferenceable(60) %8)
          to label %33 unwind label %27

33:                                               ; preds = %31
  %34 = invoke noundef i32 @_ZNK6icu_7711StringPiece6lengthEv(ptr noundef nonnull align 8 dereferenceable(12) %5)
          to label %35 unwind label %27

35:                                               ; preds = %33
  %36 = load ptr, ptr %7, align 8, !tbaa !22
  invoke void @_ZN6icu_776number4impl6DecNum6_setToEPKciR10UErrorCode(ptr noundef nonnull align 8 dereferenceable(92) %15, ptr noundef %32, i32 noundef %34, ptr noundef nonnull align 4 dereferenceable(4) %36)
          to label %37 unwind label %27

37:                                               ; preds = %35
  store i32 0, ptr %12, align 4
  br label %38

38:                                               ; preds = %37, %26
  call void @_ZN6icu_7710CharStringD2Ev(ptr noundef nonnull align 8 dereferenceable(60) %8) #12
  call void @llvm.lifetime.end.p0(i64 64, ptr %8) #12
  %39 = load i32, ptr %12, align 4
  switch i32 %39, label %46 [
    i32 0, label %40
    i32 1, label %40
  ]

40:                                               ; preds = %38, %38
  ret void

41:                                               ; preds = %27
  %42 = load ptr, ptr %10, align 8
  %43 = load i32, ptr %11, align 4
  %44 = insertvalue { ptr, i32 } poison, ptr %42, 0
  %45 = insertvalue { ptr, i32 } %44, i32 %43, 1
  resume { ptr, i32 } %45

46:                                               ; preds = %38
  unreachable
}