; Function Attrs: mustprogress uwtable
define void @_ZN6icu_776number4impl6DecNum5setToENS_11StringPieceER10UErrorCode(ptr noundef nonnull align 8 dereferenceable(92) %0, ptr %1, i32 %2, ptr noundef nonnull align 4 dereferenceable(4) %3) local_unnamed_addr #1 align 2 personality ptr @__gxx_personality_v0 {
  %5 = alloca %"class.icu_77::CharString", align 8
  call void @llvm.lifetime.start.p0(i64 64, ptr nonnull %5) #14
  call void @_ZN6icu_7715MaybeStackArrayIcLi40EEC1Ev(ptr noundef nonnull align 8 dereferenceable(60) %5)
  %6 = getelementptr inbounds nuw i8, ptr %5, i64 56
  store i32 0, ptr %6, align 8, !tbaa !21
  %7 = load ptr, ptr %5, align 8, !tbaa !3
  store i8 0, ptr %7, align 1, !tbaa !23
  %8 = invoke noundef nonnull align 8 dereferenceable(60) ptr @_ZN6icu_7710CharString6appendEPKciR10UErrorCode(ptr noundef nonnull align 8 dereferenceable(60) %5, ptr noundef %1, i32 noundef %2, ptr noundef nonnull align 4 dereferenceable(4) %3)
          to label %_ZN6icu_7710CharStringC2ENS_11StringPieceER10UErrorCode.exit unwind label %9

common.resume:                                    ; preds = %13, %9
  %common.resume.op = phi { ptr, i32 } [ %10, %9 ], [ %14, %13 ]
  resume { ptr, i32 } %common.resume.op

9:                                                ; preds = %4
  %10 = landingpad { ptr, i32 }
          cleanup
  call void @_ZN6icu_7715MaybeStackArrayIcLi40EED1Ev(ptr noundef nonnull align 8 dereferenceable(60) %5) #14
  br label %common.resume

_ZN6icu_7710CharStringC2ENS_11StringPieceER10UErrorCode.exit: ; preds = %4
  %11 = load i32, ptr %3, align 4, !tbaa !13
  %12 = icmp slt i32 %11, 1
  br i1 %12, label %15, label %_ZN6icu_776number4impl6DecNum6_setToEPKciR10UErrorCode.exit

13:                                               ; preds = %_ZN6icu_7724MaybeStackHeaderAndArrayI9decNumbercLi34EE6resizeEii.exit.i, %24, %18
  %14 = landingpad { ptr, i32 }
          cleanup
  call void @_ZN6icu_7715MaybeStackArrayIcLi40EED1Ev(ptr noundef nonnull align 8 dereferenceable(60) %5) #14
  call void @llvm.lifetime.end.p0(i64 64, ptr nonnull %5) #14
  br label %common.resume

15:                                               ; preds = %_ZN6icu_7710CharStringC2ENS_11StringPieceER10UErrorCode.exit
  %16 = load ptr, ptr %5, align 8, !tbaa !3
  %17 = icmp sgt i32 %2, 34
  br i1 %17, label %18, label %._ZN6icu_7724MaybeStackHeaderAndArrayI9decNumbercLi34EE6resizeEii.exit.i_crit_edge

._ZN6icu_7724MaybeStackHeaderAndArrayI9decNumbercLi34EE6resizeEii.exit.i_crit_edge: ; preds = %15
  %.pre = load ptr, ptr %0, align 8, !tbaa !24
  br label %_ZN6icu_7724MaybeStackHeaderAndArrayI9decNumbercLi34EE6resizeEii.exit.i

18:                                               ; preds = %15
  %narrow.i.i = add nuw i32 %2, 12
  %19 = zext i32 %narrow.i.i to i64
  %20 = invoke noalias ptr @uprv_malloc_77(i64 noundef %19) #15
          to label %.noexc unwind label %13

.noexc:                                           ; preds = %18
  %.not.i.i = icmp eq ptr %20, null
  %.pre7 = load ptr, ptr %0, align 8, !tbaa !24
  br i1 %.not.i.i, label %_ZN6icu_7724MaybeStackHeaderAndArrayI9decNumbercLi34EE6resizeEii.exit.i, label %21

21:                                               ; preds = %.noexc
  call void @llvm.memcpy.p0.p0.i64(ptr noundef nonnull align 4 dereferenceable(12) %20, ptr noundef nonnull align 4 dereferenceable(12) %.pre7, i64 12, i1 false)
  %22 = getelementptr inbounds nuw i8, ptr %0, i64 12
  %23 = load i8, ptr %22, align 4, !tbaa !28
  %.not.i.i.i = icmp eq i8 %23, 0
  br i1 %.not.i.i.i, label %_ZN6icu_7724MaybeStackHeaderAndArrayI9decNumbercLi34EE13releaseMemoryEv.exit.i.i, label %24

24:                                               ; preds = %21
  invoke void @uprv_free_77(ptr noundef nonnull %.pre7)
          to label %_ZN6icu_7724MaybeStackHeaderAndArrayI9decNumbercLi34EE13releaseMemoryEv.exit.i.i unwind label %13

_ZN6icu_7724MaybeStackHeaderAndArrayI9decNumbercLi34EE13releaseMemoryEv.exit.i.i: ; preds = %24, %21
  store ptr %20, ptr %0, align 8, !tbaa !24
  %25 = getelementptr inbounds nuw i8, ptr %0, i64 8
  store i32 %2, ptr %25, align 8, !tbaa !27
  store i8 1, ptr %22, align 4, !tbaa !28
  br label %_ZN6icu_7724MaybeStackHeaderAndArrayI9decNumbercLi34EE6resizeEii.exit.i

_ZN6icu_7724MaybeStackHeaderAndArrayI9decNumbercLi34EE6resizeEii.exit.i: ; preds = %._ZN6icu_7724MaybeStackHeaderAndArrayI9decNumbercLi34EE6resizeEii.exit.i_crit_edge, %_ZN6icu_7724MaybeStackHeaderAndArrayI9decNumbercLi34EE13releaseMemoryEv.exit.i.i, %.noexc
  %26 = phi ptr [ %.pre7, %.noexc ], [ %20, %_ZN6icu_7724MaybeStackHeaderAndArrayI9decNumbercLi34EE13releaseMemoryEv.exit.i.i ], [ %.pre, %._ZN6icu_7724MaybeStackHeaderAndArrayI9decNumbercLi34EE6resizeEii.exit.i_crit_edge ]
  %.sink.i = phi i32 [ %2, %.noexc ], [ %2, %_ZN6icu_7724MaybeStackHeaderAndArrayI9decNumbercLi34EE13releaseMemoryEv.exit.i.i ], [ 34, %._ZN6icu_7724MaybeStackHeaderAndArrayI9decNumbercLi34EE6resizeEii.exit.i_crit_edge ]
  %27 = getelementptr inbounds nuw i8, ptr %0, i64 64
  store i32 %.sink.i, ptr %27, align 8, !tbaa !35
  %28 = invoke ptr @uprv_decNumberFromString_77(ptr noundef %26, ptr noundef %16, ptr noundef nonnull %27)
          to label %.noexc6 unwind label %13

.noexc6:                                          ; preds = %_ZN6icu_7724MaybeStackHeaderAndArrayI9decNumbercLi34EE6resizeEii.exit.i
  %29 = getelementptr inbounds nuw i8, ptr %0, i64 84
  %30 = load i32, ptr %29, align 4, !tbaa !36
  %31 = and i32 %30, 1
  %.not.i = icmp eq i32 %31, 0
  br i1 %.not.i, label %32, label %.sink.split.i

32:                                               ; preds = %.noexc6
  %.not6.i = icmp eq i32 %30, 0
  br i1 %.not6.i, label %_ZN6icu_776number4impl6DecNum6_setToEPKciR10UErrorCode.exit, label %.sink.split.i

.sink.split.i:                                    ; preds = %32, %.noexc6
  %.sink8.i = phi i32 [ 65808, %.noexc6 ], [ 16, %32 ]
  store i32 %.sink8.i, ptr %3, align 4, !tbaa !13
  br label %_ZN6icu_776number4impl6DecNum6_setToEPKciR10UErrorCode.exit

_ZN6icu_776number4impl6DecNum6_setToEPKciR10UErrorCode.exit: ; preds = %.sink.split.i, %32, %_ZN6icu_7710CharStringC2ENS_11StringPieceER10UErrorCode.exit
  call void @_ZN6icu_7715MaybeStackArrayIcLi40EED1Ev(ptr noundef nonnull align 8 dereferenceable(60) %5) #14
  call void @llvm.lifetime.end.p0(i64 64, ptr nonnull %5) #14
  ret void
}